; Function Attrs: nounwind uwtable
define zeroext range(i8 0, 2) i8 @l_Array_isEqvAux___at_Lean_Compiler_LCNF_ToLCNF_toLCNF_visitCasesImplementedBy___spec__3(ptr readnone captures(none) %0, ptr readnone captures(none) %1, ptr readnone captures(none) %2, ptr noundef readonly captures(none) %3, ptr noundef readonly captures(none) %4, ptr noundef %5, ptr readnone captures(none) %6) local_unnamed_addr #1 {
  %8 = getelementptr inbounds nuw i8, ptr %3, i64 24
  %9 = getelementptr inbounds nuw i8, ptr %4, i64 24
  br label %lean_dec.exit26

lean_dec.exit26:                                  ; preds = %lean_dec.exit27, %7
  %.023 = phi ptr [ %5, %7 ], [ %.1.i45, %lean_dec.exit27 ]
  %10 = ptrtoint ptr %.023 to i64
  %11 = and i64 %10, 1
  %.not = icmp eq i64 %11, 0
  br i1 %.not, label %lean_nat_eq.exit.thread, label %lean_nat_eq.exit, !prof !15

lean_nat_eq.exit:                                 ; preds = %lean_dec.exit26
  %.not53 = icmp eq ptr %.023, inttoptr (i64 1 to ptr)
  br i1 %.not53, label %.loopexit, label %13

lean_nat_eq.exit.thread:                          ; preds = %lean_dec.exit26
  %12 = tail call zeroext i1 @lean_nat_big_eq(ptr noundef %.023, ptr noundef nonnull inttoptr (i64 1 to ptr)) #5
  br i1 %12, label %.thread46, label %.thread

13:                                               ; preds = %lean_nat_eq.exit
  %14 = icmp ult ptr %.023, inttoptr (i64 2 to ptr)
  br i1 %14, label %lean_dec.exit29, label %15

15:                                               ; preds = %13
  %16 = add i64 %10, -2
  %17 = inttoptr i64 %16 to ptr
  br label %lean_dec.exit29

.thread:                                          ; preds = %lean_nat_eq.exit.thread
  %18 = tail call ptr @lean_nat_big_sub(ptr noundef %.023, ptr noundef nonnull inttoptr (i64 3 to ptr)) #5
  %19 = load i32, ptr %.023, align 4, !tbaa !4
  %20 = icmp sgt i32 %19, 1
  br i1 %20, label %21, label %23, !prof !11

21:                                               ; preds = %.thread
  %22 = add nsw i32 %19, -1
  store i32 %22, ptr %.023, align 4, !tbaa !4
  br label %lean_dec.exit29

23:                                               ; preds = %.thread
  %.not.i = icmp eq i32 %19, 0
  br i1 %.not.i, label %lean_dec.exit29, label %24

24:                                               ; preds = %23
  tail call void @lean_dec_ref_cold(ptr noundef nonnull %.023) #5
  br label %lean_dec.exit29

lean_dec.exit29:                                  ; preds = %15, %13, %24, %23, %21
  %.1.i45 = phi ptr [ %18, %21 ], [ %18, %23 ], [ %18, %24 ], [ inttoptr (i64 1 to ptr), %13 ], [ %17, %15 ]
  %25 = ptrtoint ptr %.1.i45 to i64
  %26 = lshr i64 %25, 1
  %27 = getelementptr inbounds nuw [0 x ptr], ptr %8, i64 0, i64 %26
  %28 = load ptr, ptr %27, align 8, !tbaa !9
  %29 = ptrtoint ptr %28 to i64
  %30 = and i64 %29, 1
  %.not.i.i = icmp eq i64 %30, 0
  br i1 %.not.i.i, label %31, label %lean_array_fget.exit

31:                                               ; preds = %lean_dec.exit29
  %.val.i.i.i = load i32, ptr %28, align 4, !tbaa !4
  %32 = icmp sgt i32 %.val.i.i.i, 0
  br i1 %32, label %33, label %35, !prof !11

33:                                               ; preds = %31
  %34 = add nuw i32 %.val.i.i.i, 1
  store i32 %34, ptr %28, align 4, !tbaa !4
  br label %lean_array_fget.exit

35:                                               ; preds = %31
  %.not.i.i.i = icmp eq i32 %.val.i.i.i, 0
  br i1 %.not.i.i.i, label %lean_array_fget.exit, label %36

36:                                               ; preds = %35
  tail call void @lean_inc_ref_cold(ptr noundef nonnull %28) #5
  br label %lean_array_fget.exit

lean_array_fget.exit:                             ; preds = %lean_dec.exit29, %33, %35, %36
  %37 = getelementptr inbounds nuw [0 x ptr], ptr %9, i64 0, i64 %26
  %38 = load ptr, ptr %37, align 8, !tbaa !9
  %39 = ptrtoint ptr %38 to i64
  %40 = and i64 %39, 1
  %.not.i.i39 = icmp eq i64 %40, 0
  br i1 %.not.i.i39, label %41, label %lean_array_fget.exit42

41:                                               ; preds = %lean_array_fget.exit
  %.val.i.i.i40 = load i32, ptr %38, align 4, !tbaa !4
  %42 = icmp sgt i32 %.val.i.i.i40, 0
  br i1 %42, label %43, label %45, !prof !11

43:                                               ; preds = %41
  %44 = add nuw i32 %.val.i.i.i40, 1
  store i32 %44, ptr %38, align 4, !tbaa !4
  br label %48

45:                                               ; preds = %41
  %.not.i.i.i41 = icmp eq i32 %.val.i.i.i40, 0
  br i1 %.not.i.i.i41, label %48, label %46

46:                                               ; preds = %45
  tail call void @lean_inc_ref_cold(ptr noundef nonnull %38) #5
  br label %48

lean_array_fget.exit42:                           ; preds = %lean_array_fget.exit
  %47 = tail call zeroext i8 @lean_expr_eqv(ptr noundef %28, ptr noundef %38) #5
  br label %lean_dec.exit28

48:                                               ; preds = %43, %45, %46
  %49 = tail call zeroext i8 @lean_expr_eqv(ptr noundef %28, ptr noundef nonnull %38) #5
  %50 = load i32, ptr %38, align 4, !tbaa !4
  %51 = icmp sgt i32 %50, 1
  br i1 %51, label %52, label %54, !prof !11

52:                                               ; preds = %48
  %53 = add nsw i32 %50, -1
  store i32 %53, ptr %38, align 4, !tbaa !4
  br label %lean_dec.exit28

54:                                               ; preds = %48
  %.not.i30 = icmp eq i32 %50, 0
  br i1 %.not.i30, label %lean_dec.exit28, label %55

55:                                               ; preds = %54
  tail call void @lean_dec_ref_cold(ptr noundef nonnull %38) #5
  br label %lean_dec.exit28

lean_dec.exit28:                                  ; preds = %55, %54, %52, %lean_array_fget.exit42
  %56 = phi i8 [ %47, %lean_array_fget.exit42 ], [ %49, %52 ], [ %49, %54 ], [ %49, %55 ]
  br i1 %.not.i.i, label %57, label %lean_dec.exit27

57:                                               ; preds = %lean_dec.exit28
  %58 = load i32, ptr %28, align 4, !tbaa !4
  %59 = icmp sgt i32 %58, 1
  br i1 %59, label %60, label %62, !prof !11

60:                                               ; preds = %57
  %61 = add nsw i32 %58, -1
  store i32 %61, ptr %28, align 4, !tbaa !4
  br label %lean_dec.exit27

62:                                               ; preds = %57
  %.not.i32 = icmp eq i32 %58, 0
  br i1 %.not.i32, label %lean_dec.exit27, label %63

63:                                               ; preds = %62
  tail call void @lean_dec_ref_cold(ptr noundef nonnull %28) #5
  br label %lean_dec.exit27

lean_dec.exit27:                                  ; preds = %63, %62, %60, %lean_dec.exit28
  %64 = icmp eq i8 %56, 0
  br i1 %64, label %65, label %lean_dec.exit26

65:                                               ; preds = %lean_dec.exit27
  %66 = and i64 %25, 1
  %.not55 = icmp eq i64 %66, 0
  br i1 %.not55, label %67, label %.loopexit

67:                                               ; preds = %65
  %68 = load i32, ptr %.1.i45, align 4, !tbaa !4
  %69 = icmp sgt i32 %68, 1
  br i1 %69, label %70, label %72, !prof !11

70:                                               ; preds = %67
  %71 = add nsw i32 %68, -1
  store i32 %71, ptr %.1.i45, align 4, !tbaa !4
  br label %.loopexit

72:                                               ; preds = %67
  %.not.i34 = icmp eq i32 %68, 0
  br i1 %.not.i34, label %.loopexit, label %73

73:                                               ; preds = %72
  tail call void @lean_dec_ref_cold(ptr noundef nonnull %.1.i45) #5
  br label %.loopexit

.thread46:                                        ; preds = %lean_nat_eq.exit.thread
  %74 = load i32, ptr %.023, align 4, !tbaa !4
  %75 = icmp sgt i32 %74, 1
  br i1 %75, label %76, label %78, !prof !11

76:                                               ; preds = %.thread46
  %77 = add nsw i32 %74, -1
  store i32 %77, ptr %.023, align 4, !tbaa !4
  br label %.loopexit

78:                                               ; preds = %.thread46
  %.not.i36 = icmp eq i32 %74, 0
  br i1 %.not.i36, label %.loopexit, label %79

79:                                               ; preds = %78
  tail call void @lean_dec_ref_cold(ptr noundef nonnull %.023) #5
  br label %.loopexit

.loopexit:                                        ; preds = %lean_nat_eq.exit, %73, %72, %70, %65, %79, %78, %76
  %.2.ph = phi i8 [ 1, %76 ], [ 1, %78 ], [ 1, %79 ], [ 0, %65 ], [ 0, %70 ], [ 0, %72 ], [ 0, %73 ], [ 1, %lean_nat_eq.exit ]
  ret i8 %.2.ph
}